; Function Attrs: mustprogress nofree norecurse nosync nounwind memory(write, argmem: readwrite, inaccessiblemem: none) uwtable
define hidden void @_ZN12mpfx_manager17set_minus_epsilonER4mpfx(ptr noundef nonnull readonly align 8 captures(none) dereferenceable(85) %0, ptr noundef nonnull align 4 captures(none) dereferenceable(4) %1) local_unnamed_addr #14 align 2 {
  %3 = getelementptr inbounds nuw i8, ptr %0, i64 16
  %4 = load ptr, ptr %3, align 8, !tbaa !3
  %5 = load i32, ptr %1, align 4
  %6 = lshr i32 %5, 1
  %7 = getelementptr inbounds nuw i8, ptr %0, i64 8
  %8 = load i32, ptr %7, align 8, !tbaa !19
  %9 = mul i32 %6, %8
  %10 = zext i32 %9 to i64
  %11 = getelementptr inbounds nuw i32, ptr %4, i64 %10
  store i32 1, ptr %11, align 4, !tbaa !22
  %12 = load i32, ptr %7, align 8, !tbaa !19
  %13 = icmp ugt i32 %12, 1
  br i1 %13, label %.lr.ph.i, label %_ZN12mpfx_manager11set_epsilonER4mpfx.exit

.lr.ph.i:                                         ; preds = %2, %.lr.ph.i
  %indvars.iv.i = phi i64 [ %indvars.iv.next.i, %.lr.ph.i ], [ 1, %2 ]
  %14 = getelementptr inbounds nuw i32, ptr %11, i64 %indvars.iv.i
  store i32 0, ptr %14, align 4, !tbaa !22
  %indvars.iv.next.i = add nuw nsw i64 %indvars.iv.i, 1
  %15 = load i32, ptr %7, align 8, !tbaa !19
  %16 = zext i32 %15 to i64
  %17 = icmp samesign ult i64 %indvars.iv.next.i, %16
  br i1 %17, label %.lr.ph.i, label %_ZN12mpfx_manager11set_epsilonER4mpfx.exit, !llvm.loop !51

_ZN12mpfx_manager11set_epsilonER4mpfx.exit:       ; preds = %.lr.ph.i, %2
  %18 = load i32, ptr %1, align 4
  %19 = or i32 %18, 1
  store i32 %19, ptr %1, align 4
  ret void
}